; Function Attrs: mustprogress nounwind uwtable
define dso_local noundef i32 @napi_reference_ref(ptr noundef %env, ptr noundef %ref, ptr noundef writeonly %result) local_unnamed_addr #3 {
entry:
  %cmp = icmp eq ptr %env, null
  br i1 %cmp, label %return, label %do.end

do.end:                                           ; preds = %entry
  %module_api_version.i = getelementptr inbounds i8, ptr %env, i64 184
  %0 = load i32, ptr %module_api_version.i, align 8
  %cmp.i = icmp eq i32 %0, 2147483647
  br i1 %cmp.i, label %land.lhs.true.i, label %_ZN10napi_env__13CheckGCAccessEv.exit

land.lhs.true.i:                                  ; preds = %do.end
  %in_gc_finalizer.i = getelementptr inbounds i8, ptr %env, i64 188
  %1 = load i8, ptr %in_gc_finalizer.i, align 4
  %2 = and i8 %1, 1
  %tobool.not.i = icmp eq i8 %2, 0
  br i1 %tobool.not.i, label %_ZN10napi_env__13CheckGCAccessEv.exit, label %if.then.i

if.then.i:                                        ; preds = %land.lhs.true.i
  tail call void @_ZN6v8impl12OnFatalErrorEPKcS1_(ptr noundef null, ptr noundef nonnull @.str.41) #28
  unreachable

_ZN10napi_env__13CheckGCAccessEv.exit:            ; preds = %do.end, %land.lhs.true.i
  %cmp4.not = icmp eq ptr %ref, null
  br i1 %cmp4.not, label %if.then5, label %do.end7

if.then5:                                         ; preds = %_ZN10napi_env__13CheckGCAccessEv.exit
  %error_code1.i = getelementptr inbounds i8, ptr %env, i64 156
  store i32 1, ptr %error_code1.i, align 4
  %engine_error_code3.i = getelementptr inbounds i8, ptr %env, i64 152
  store i32 0, ptr %engine_error_code3.i, align 8
  %engine_reserved5.i = getelementptr inbounds i8, ptr %env, i64 144
  store ptr null, ptr %engine_reserved5.i, align 8
  br label %return

do.end7:                                          ; preds = %_ZN10napi_env__13CheckGCAccessEv.exit
  %persistent_.i = getelementptr inbounds i8, ptr %ref, i64 72
  %3 = load ptr, ptr %persistent_.i, align 8
  %cmp.i.i = icmp eq ptr %3, null
  br i1 %cmp.i.i, label %_ZN6v8impl9Reference3RefEv.exit, label %if.end.i

if.end.i:                                         ; preds = %do.end7
  %refcount_.i.i = getelementptr inbounds i8, ptr %ref, i64 64
  %4 = load i32, ptr %refcount_.i.i, align 8
  %inc.i.i = add i32 %4, 1
  store i32 %inc.i.i, ptr %refcount_.i.i, align 8
  %cmp.i6 = icmp eq i32 %4, 0
  br i1 %cmp.i6, label %land.lhs.true.i7, label %_ZN6v8impl9Reference3RefEv.exit

land.lhs.true.i7:                                 ; preds = %if.end.i
  %can_be_weak_.i = getelementptr inbounds i8, ptr %ref, i64 80
  %5 = load i8, ptr %can_be_weak_.i, align 8
  %6 = and i8 %5, 1
  %tobool.not.i8 = icmp eq i8 %6, 0
  br i1 %tobool.not.i8, label %_ZN6v8impl9Reference3RefEv.exit, label %if.then3.i

if.then3.i:                                       ; preds = %land.lhs.true.i7
  %call2.i.i = tail call noundef ptr @_ZN2v812api_internal9ClearWeakEPm(ptr noundef nonnull %3) #24
  br label %_ZN6v8impl9Reference3RefEv.exit

_ZN6v8impl9Reference3RefEv.exit:                  ; preds = %do.end7, %if.end.i, %land.lhs.true.i7, %if.then3.i
  %retval.0.i = phi i32 [ 0, %do.end7 ], [ 1, %if.then3.i ], [ 1, %land.lhs.true.i7 ], [ %inc.i.i, %if.end.i ]
  %cmp9.not = icmp eq ptr %result, null
  br i1 %cmp9.not, label %if.end11, label %if.then10

if.then10:                                        ; preds = %_ZN6v8impl9Reference3RefEv.exit
  store i32 %retval.0.i, ptr %result, align 4
  br label %if.end11

if.end11:                                         ; preds = %if.then10, %_ZN6v8impl9Reference3RefEv.exit
  %last_error.i = getelementptr inbounds i8, ptr %env, i64 136
  tail call void @llvm.memset.p0.i64(ptr noundef nonnull align 8 dereferenceable(24) %last_error.i, i8 0, i64 24, i1 false)
  br label %return

return:                                           ; preds = %entry, %if.end11, %if.then5
  %retval.0 = phi i32 [ 0, %if.end11 ], [ 1, %if.then5 ], [ 1, %entry ]
  ret i32 %retval.0
}